ARM GAS  C:\Users\MECHAT~1\AppData\Local\Temp\cc6MRilA.s 			page 1


   1              		.syntax unified
   2              		.cpu cortex-m3
   3              		.fpu softvfp
   4              		.eabi_attribute 20, 1
   5              		.eabi_attribute 21, 1
   6              		.eabi_attribute 23, 3
   7              		.eabi_attribute 24, 1
   8              		.eabi_attribute 25, 1
   9              		.eabi_attribute 26, 1
  10              		.eabi_attribute 30, 1
  11              		.eabi_attribute 34, 1
  12              		.eabi_attribute 18, 4
  13              		.thumb
  14              		.syntax unified
  15              		.file	"LCD_Char_LCDPort.c"
  16              		.text
  17              	.Ltext0:
  18              		.cfi_sections	.debug_frame
  19              		.section	.text.LCD_Char_LCDPort_Write,"ax",%progbits
  20              		.align	2
  21              		.global	LCD_Char_LCDPort_Write
  22              		.thumb
  23              		.thumb_func
  24              		.type	LCD_Char_LCDPort_Write, %function
  25              	LCD_Char_LCDPort_Write:
  26              	.LFB0:
  27              		.file 1 "Generated_Source\\PSoC5\\LCD_Char_LCDPort.c"
   1:Generated_Source\PSoC5/LCD_Char_LCDPort.c **** /*******************************************************************************
   2:Generated_Source\PSoC5/LCD_Char_LCDPort.c **** * File Name: LCD_Char_LCDPort.c  
   3:Generated_Source\PSoC5/LCD_Char_LCDPort.c **** * Version 2.20
   4:Generated_Source\PSoC5/LCD_Char_LCDPort.c **** *
   5:Generated_Source\PSoC5/LCD_Char_LCDPort.c **** * Description:
   6:Generated_Source\PSoC5/LCD_Char_LCDPort.c **** *  This file contains API to enable firmware control of a Pins component.
   7:Generated_Source\PSoC5/LCD_Char_LCDPort.c **** *
   8:Generated_Source\PSoC5/LCD_Char_LCDPort.c **** * Note:
   9:Generated_Source\PSoC5/LCD_Char_LCDPort.c **** *
  10:Generated_Source\PSoC5/LCD_Char_LCDPort.c **** ********************************************************************************
  11:Generated_Source\PSoC5/LCD_Char_LCDPort.c **** * Copyright 2008-2015, Cypress Semiconductor Corporation.  All rights reserved.
  12:Generated_Source\PSoC5/LCD_Char_LCDPort.c **** * You may use this file only in accordance with the license, terms, conditions, 
  13:Generated_Source\PSoC5/LCD_Char_LCDPort.c **** * disclaimers, and limitations in the end user license agreement accompanying 
  14:Generated_Source\PSoC5/LCD_Char_LCDPort.c **** * the software package with which this file was provided.
  15:Generated_Source\PSoC5/LCD_Char_LCDPort.c **** *******************************************************************************/
  16:Generated_Source\PSoC5/LCD_Char_LCDPort.c **** 
  17:Generated_Source\PSoC5/LCD_Char_LCDPort.c **** #include "cytypes.h"
  18:Generated_Source\PSoC5/LCD_Char_LCDPort.c **** #include "LCD_Char_LCDPort.h"
  19:Generated_Source\PSoC5/LCD_Char_LCDPort.c **** 
  20:Generated_Source\PSoC5/LCD_Char_LCDPort.c **** /* APIs are not generated for P15[7:6] on PSoC 5 */
  21:Generated_Source\PSoC5/LCD_Char_LCDPort.c **** #if !(CY_PSOC5A &&\
  22:Generated_Source\PSoC5/LCD_Char_LCDPort.c **** 	 LCD_Char_LCDPort__PORT == 15 && ((LCD_Char_LCDPort__MASK & 0xC0) != 0))
  23:Generated_Source\PSoC5/LCD_Char_LCDPort.c **** 
  24:Generated_Source\PSoC5/LCD_Char_LCDPort.c **** 
  25:Generated_Source\PSoC5/LCD_Char_LCDPort.c **** /*******************************************************************************
  26:Generated_Source\PSoC5/LCD_Char_LCDPort.c **** * Function Name: LCD_Char_LCDPort_Write
  27:Generated_Source\PSoC5/LCD_Char_LCDPort.c **** ****************************************************************************//**
  28:Generated_Source\PSoC5/LCD_Char_LCDPort.c **** *
  29:Generated_Source\PSoC5/LCD_Char_LCDPort.c **** * \brief Writes the value to the physical port (data output register), masking
  30:Generated_Source\PSoC5/LCD_Char_LCDPort.c **** *  and shifting the bits appropriately. 
ARM GAS  C:\Users\MECHAT~1\AppData\Local\Temp\cc6MRilA.s 			page 2


  31:Generated_Source\PSoC5/LCD_Char_LCDPort.c **** *
  32:Generated_Source\PSoC5/LCD_Char_LCDPort.c **** * The data output register controls the signal applied to the physical pin in 
  33:Generated_Source\PSoC5/LCD_Char_LCDPort.c **** * conjunction with the drive mode parameter. This function avoids changing 
  34:Generated_Source\PSoC5/LCD_Char_LCDPort.c **** * other bits in the port by using the appropriate method (read-modify-write or
  35:Generated_Source\PSoC5/LCD_Char_LCDPort.c **** * bit banding).
  36:Generated_Source\PSoC5/LCD_Char_LCDPort.c **** *
  37:Generated_Source\PSoC5/LCD_Char_LCDPort.c **** * <b>Note</b> This function should not be used on a hardware digital output pin 
  38:Generated_Source\PSoC5/LCD_Char_LCDPort.c **** * as it is driven by the hardware signal attached to it.
  39:Generated_Source\PSoC5/LCD_Char_LCDPort.c **** *
  40:Generated_Source\PSoC5/LCD_Char_LCDPort.c **** * \param value
  41:Generated_Source\PSoC5/LCD_Char_LCDPort.c **** *  Value to write to the component instance.
  42:Generated_Source\PSoC5/LCD_Char_LCDPort.c **** *
  43:Generated_Source\PSoC5/LCD_Char_LCDPort.c **** * \return 
  44:Generated_Source\PSoC5/LCD_Char_LCDPort.c **** *  None 
  45:Generated_Source\PSoC5/LCD_Char_LCDPort.c **** *
  46:Generated_Source\PSoC5/LCD_Char_LCDPort.c **** * \sideeffect
  47:Generated_Source\PSoC5/LCD_Char_LCDPort.c **** *  If you use read-modify-write operations that are not atomic; the Interrupt 
  48:Generated_Source\PSoC5/LCD_Char_LCDPort.c **** *  Service Routines (ISR) can cause corruption of this function. An ISR that 
  49:Generated_Source\PSoC5/LCD_Char_LCDPort.c **** *  interrupts this function and performs writes to the Pins component data 
  50:Generated_Source\PSoC5/LCD_Char_LCDPort.c **** *  register can cause corrupted port data. To avoid this issue, you should 
  51:Generated_Source\PSoC5/LCD_Char_LCDPort.c **** *  either use the Per-Pin APIs (primary method) or disable interrupts around 
  52:Generated_Source\PSoC5/LCD_Char_LCDPort.c **** *  this function.
  53:Generated_Source\PSoC5/LCD_Char_LCDPort.c **** *
  54:Generated_Source\PSoC5/LCD_Char_LCDPort.c **** * \funcusage
  55:Generated_Source\PSoC5/LCD_Char_LCDPort.c **** *  \snippet LCD_Char_LCDPort_SUT.c usage_LCD_Char_LCDPort_Write
  56:Generated_Source\PSoC5/LCD_Char_LCDPort.c **** *******************************************************************************/
  57:Generated_Source\PSoC5/LCD_Char_LCDPort.c **** void LCD_Char_LCDPort_Write(uint8 value)
  58:Generated_Source\PSoC5/LCD_Char_LCDPort.c **** {
  28              		.loc 1 58 0
  29              		.cfi_startproc
  30              		@ args = 0, pretend = 0, frame = 0
  31              		@ frame_needed = 0, uses_anonymous_args = 0
  32              		@ link register save eliminated.
  33              	.LVL0:
  59:Generated_Source\PSoC5/LCD_Char_LCDPort.c ****     uint8 staticBits = (LCD_Char_LCDPort_DR & (uint8)(~LCD_Char_LCDPort_MASK));
  34              		.loc 1 59 0
  35 0000 044A     		ldr	r2, .L2
  36 0002 1378     		ldrb	r3, [r2]	@ zero_extendqisi2
  37 0004 03F00103 		and	r3, r3, #1
  38              	.LVL1:
  60:Generated_Source\PSoC5/LCD_Char_LCDPort.c ****     LCD_Char_LCDPort_DR = staticBits | ((uint8)(value << LCD_Char_LCDPort_SHIFT) & LCD_Char_LCDPort
  39              		.loc 1 60 0
  40 0008 4000     		lsls	r0, r0, #1
  41              	.LVL2:
  42 000a C0B2     		uxtb	r0, r0
  43 000c 1843     		orrs	r0, r0, r3
  44 000e 1070     		strb	r0, [r2]
  45 0010 7047     		bx	lr
  46              	.L3:
  47 0012 00BF     		.align	2
  48              	.L2:
  49 0014 C0510040 		.word	1073762752
  50              		.cfi_endproc
  51              	.LFE0:
  52              		.size	LCD_Char_LCDPort_Write, .-LCD_Char_LCDPort_Write
  53              		.section	.text.LCD_Char_LCDPort_SetDriveMode,"ax",%progbits
  54              		.align	2
ARM GAS  C:\Users\MECHAT~1\AppData\Local\Temp\cc6MRilA.s 			page 3


  55              		.global	LCD_Char_LCDPort_SetDriveMode
  56              		.thumb
  57              		.thumb_func
  58              		.type	LCD_Char_LCDPort_SetDriveMode, %function
  59              	LCD_Char_LCDPort_SetDriveMode:
  60              	.LFB1:
  61:Generated_Source\PSoC5/LCD_Char_LCDPort.c **** }
  62:Generated_Source\PSoC5/LCD_Char_LCDPort.c **** 
  63:Generated_Source\PSoC5/LCD_Char_LCDPort.c **** 
  64:Generated_Source\PSoC5/LCD_Char_LCDPort.c **** /*******************************************************************************
  65:Generated_Source\PSoC5/LCD_Char_LCDPort.c **** * Function Name: LCD_Char_LCDPort_SetDriveMode
  66:Generated_Source\PSoC5/LCD_Char_LCDPort.c **** ****************************************************************************//**
  67:Generated_Source\PSoC5/LCD_Char_LCDPort.c **** *
  68:Generated_Source\PSoC5/LCD_Char_LCDPort.c **** * \brief Sets the drive mode for each of the Pins component's pins.
  69:Generated_Source\PSoC5/LCD_Char_LCDPort.c **** * 
  70:Generated_Source\PSoC5/LCD_Char_LCDPort.c **** * <b>Note</b> This affects all pins in the Pins component instance. Use the
  71:Generated_Source\PSoC5/LCD_Char_LCDPort.c **** * Per-Pin APIs if you wish to control individual pin's drive modes.
  72:Generated_Source\PSoC5/LCD_Char_LCDPort.c **** *
  73:Generated_Source\PSoC5/LCD_Char_LCDPort.c **** * \param mode
  74:Generated_Source\PSoC5/LCD_Char_LCDPort.c **** *  Mode for the selected signals. Valid options are documented in 
  75:Generated_Source\PSoC5/LCD_Char_LCDPort.c **** *  \ref driveMode.
  76:Generated_Source\PSoC5/LCD_Char_LCDPort.c **** *
  77:Generated_Source\PSoC5/LCD_Char_LCDPort.c **** * \return
  78:Generated_Source\PSoC5/LCD_Char_LCDPort.c **** *  None
  79:Generated_Source\PSoC5/LCD_Char_LCDPort.c **** *
  80:Generated_Source\PSoC5/LCD_Char_LCDPort.c **** * \sideeffect
  81:Generated_Source\PSoC5/LCD_Char_LCDPort.c **** *  If you use read-modify-write operations that are not atomic, the ISR can
  82:Generated_Source\PSoC5/LCD_Char_LCDPort.c **** *  cause corruption of this function. An ISR that interrupts this function 
  83:Generated_Source\PSoC5/LCD_Char_LCDPort.c **** *  and performs writes to the Pins component Drive Mode registers can cause 
  84:Generated_Source\PSoC5/LCD_Char_LCDPort.c **** *  corrupted port data. To avoid this issue, you should either use the Per-Pin
  85:Generated_Source\PSoC5/LCD_Char_LCDPort.c **** *  APIs (primary method) or disable interrupts around this function.
  86:Generated_Source\PSoC5/LCD_Char_LCDPort.c **** *
  87:Generated_Source\PSoC5/LCD_Char_LCDPort.c **** * \funcusage
  88:Generated_Source\PSoC5/LCD_Char_LCDPort.c **** *  \snippet LCD_Char_LCDPort_SUT.c usage_LCD_Char_LCDPort_SetDriveMode
  89:Generated_Source\PSoC5/LCD_Char_LCDPort.c **** *******************************************************************************/
  90:Generated_Source\PSoC5/LCD_Char_LCDPort.c **** void LCD_Char_LCDPort_SetDriveMode(uint8 mode)
  91:Generated_Source\PSoC5/LCD_Char_LCDPort.c **** {
  61              		.loc 1 91 0
  62              		.cfi_startproc
  63              		@ args = 0, pretend = 0, frame = 0
  64              		@ frame_needed = 0, uses_anonymous_args = 0
  65              		@ link register save eliminated.
  66              	.LVL3:
  92:Generated_Source\PSoC5/LCD_Char_LCDPort.c **** 	CyPins_SetPinDriveMode(LCD_Char_LCDPort_0, mode);
  67              		.loc 1 92 0
  68 0000 164A     		ldr	r2, .L5
  69 0002 1378     		ldrb	r3, [r2]	@ zero_extendqisi2
  70 0004 00F00E00 		and	r0, r0, #14
  71              	.LVL4:
  72 0008 03F0F103 		and	r3, r3, #241
  73 000c 0343     		orrs	r3, r3, r0
  74 000e 1370     		strb	r3, [r2]
  93:Generated_Source\PSoC5/LCD_Char_LCDPort.c **** 	CyPins_SetPinDriveMode(LCD_Char_LCDPort_1, mode);
  75              		.loc 1 93 0
  76 0010 0132     		adds	r2, r2, #1
  77 0012 1378     		ldrb	r3, [r2]	@ zero_extendqisi2
  78 0014 03F0F103 		and	r3, r3, #241
ARM GAS  C:\Users\MECHAT~1\AppData\Local\Temp\cc6MRilA.s 			page 4


  79 0018 0343     		orrs	r3, r3, r0
  80 001a 1370     		strb	r3, [r2]
  94:Generated_Source\PSoC5/LCD_Char_LCDPort.c **** 	CyPins_SetPinDriveMode(LCD_Char_LCDPort_2, mode);
  81              		.loc 1 94 0
  82 001c 0132     		adds	r2, r2, #1
  83 001e 1378     		ldrb	r3, [r2]	@ zero_extendqisi2
  84 0020 03F0F103 		and	r3, r3, #241
  85 0024 0343     		orrs	r3, r3, r0
  86 0026 1370     		strb	r3, [r2]
  95:Generated_Source\PSoC5/LCD_Char_LCDPort.c **** 	CyPins_SetPinDriveMode(LCD_Char_LCDPort_3, mode);
  87              		.loc 1 95 0
  88 0028 0132     		adds	r2, r2, #1
  89 002a 1378     		ldrb	r3, [r2]	@ zero_extendqisi2
  90 002c 03F0F103 		and	r3, r3, #241
  91 0030 0343     		orrs	r3, r3, r0
  92 0032 1370     		strb	r3, [r2]
  96:Generated_Source\PSoC5/LCD_Char_LCDPort.c **** 	CyPins_SetPinDriveMode(LCD_Char_LCDPort_4, mode);
  93              		.loc 1 96 0
  94 0034 0132     		adds	r2, r2, #1
  95 0036 1378     		ldrb	r3, [r2]	@ zero_extendqisi2
  96 0038 03F0F103 		and	r3, r3, #241
  97 003c 0343     		orrs	r3, r3, r0
  98 003e 1370     		strb	r3, [r2]
  97:Generated_Source\PSoC5/LCD_Char_LCDPort.c **** 	CyPins_SetPinDriveMode(LCD_Char_LCDPort_5, mode);
  99              		.loc 1 97 0
 100 0040 0132     		adds	r2, r2, #1
 101 0042 1378     		ldrb	r3, [r2]	@ zero_extendqisi2
 102 0044 03F0F103 		and	r3, r3, #241
 103 0048 0343     		orrs	r3, r3, r0
 104 004a 1370     		strb	r3, [r2]
  98:Generated_Source\PSoC5/LCD_Char_LCDPort.c **** 	CyPins_SetPinDriveMode(LCD_Char_LCDPort_6, mode);
 105              		.loc 1 98 0
 106 004c 0132     		adds	r2, r2, #1
 107 004e 1378     		ldrb	r3, [r2]	@ zero_extendqisi2
 108 0050 03F0F103 		and	r3, r3, #241
 109 0054 1843     		orrs	r0, r0, r3
 110 0056 1070     		strb	r0, [r2]
 111 0058 7047     		bx	lr
 112              	.L6:
 113 005a 00BF     		.align	2
 114              	.L5:
 115 005c 61500040 		.word	1073762401
 116              		.cfi_endproc
 117              	.LFE1:
 118              		.size	LCD_Char_LCDPort_SetDriveMode, .-LCD_Char_LCDPort_SetDriveMode
 119              		.section	.text.LCD_Char_LCDPort_Read,"ax",%progbits
 120              		.align	2
 121              		.global	LCD_Char_LCDPort_Read
 122              		.thumb
 123              		.thumb_func
 124              		.type	LCD_Char_LCDPort_Read, %function
 125              	LCD_Char_LCDPort_Read:
 126              	.LFB2:
  99:Generated_Source\PSoC5/LCD_Char_LCDPort.c **** }
 100:Generated_Source\PSoC5/LCD_Char_LCDPort.c **** 
 101:Generated_Source\PSoC5/LCD_Char_LCDPort.c **** 
 102:Generated_Source\PSoC5/LCD_Char_LCDPort.c **** /*******************************************************************************
ARM GAS  C:\Users\MECHAT~1\AppData\Local\Temp\cc6MRilA.s 			page 5


 103:Generated_Source\PSoC5/LCD_Char_LCDPort.c **** * Function Name: LCD_Char_LCDPort_Read
 104:Generated_Source\PSoC5/LCD_Char_LCDPort.c **** ****************************************************************************//**
 105:Generated_Source\PSoC5/LCD_Char_LCDPort.c **** *
 106:Generated_Source\PSoC5/LCD_Char_LCDPort.c **** * \brief Reads the associated physical port (pin status register) and masks 
 107:Generated_Source\PSoC5/LCD_Char_LCDPort.c **** *  the required bits according to the width and bit position of the component
 108:Generated_Source\PSoC5/LCD_Char_LCDPort.c **** *  instance. 
 109:Generated_Source\PSoC5/LCD_Char_LCDPort.c **** *
 110:Generated_Source\PSoC5/LCD_Char_LCDPort.c **** * The pin's status register returns the current logic level present on the 
 111:Generated_Source\PSoC5/LCD_Char_LCDPort.c **** * physical pin.
 112:Generated_Source\PSoC5/LCD_Char_LCDPort.c **** *
 113:Generated_Source\PSoC5/LCD_Char_LCDPort.c **** * \return 
 114:Generated_Source\PSoC5/LCD_Char_LCDPort.c **** *  The current value for the pins in the component as a right justified number.
 115:Generated_Source\PSoC5/LCD_Char_LCDPort.c **** *
 116:Generated_Source\PSoC5/LCD_Char_LCDPort.c **** * \funcusage
 117:Generated_Source\PSoC5/LCD_Char_LCDPort.c **** *  \snippet LCD_Char_LCDPort_SUT.c usage_LCD_Char_LCDPort_Read  
 118:Generated_Source\PSoC5/LCD_Char_LCDPort.c **** *******************************************************************************/
 119:Generated_Source\PSoC5/LCD_Char_LCDPort.c **** uint8 LCD_Char_LCDPort_Read(void)
 120:Generated_Source\PSoC5/LCD_Char_LCDPort.c **** {
 127              		.loc 1 120 0
 128              		.cfi_startproc
 129              		@ args = 0, pretend = 0, frame = 0
 130              		@ frame_needed = 0, uses_anonymous_args = 0
 131              		@ link register save eliminated.
 121:Generated_Source\PSoC5/LCD_Char_LCDPort.c ****     return (LCD_Char_LCDPort_PS & LCD_Char_LCDPort_MASK) >> LCD_Char_LCDPort_SHIFT;
 132              		.loc 1 121 0
 133 0000 014B     		ldr	r3, .L8
 134 0002 1878     		ldrb	r0, [r3]	@ zero_extendqisi2
 122:Generated_Source\PSoC5/LCD_Char_LCDPort.c **** }
 135              		.loc 1 122 0
 136 0004 4008     		lsrs	r0, r0, #1
 137 0006 7047     		bx	lr
 138              	.L9:
 139              		.align	2
 140              	.L8:
 141 0008 C1510040 		.word	1073762753
 142              		.cfi_endproc
 143              	.LFE2:
 144              		.size	LCD_Char_LCDPort_Read, .-LCD_Char_LCDPort_Read
 145              		.section	.text.LCD_Char_LCDPort_ReadDataReg,"ax",%progbits
 146              		.align	2
 147              		.global	LCD_Char_LCDPort_ReadDataReg
 148              		.thumb
 149              		.thumb_func
 150              		.type	LCD_Char_LCDPort_ReadDataReg, %function
 151              	LCD_Char_LCDPort_ReadDataReg:
 152              	.LFB3:
 123:Generated_Source\PSoC5/LCD_Char_LCDPort.c **** 
 124:Generated_Source\PSoC5/LCD_Char_LCDPort.c **** 
 125:Generated_Source\PSoC5/LCD_Char_LCDPort.c **** /*******************************************************************************
 126:Generated_Source\PSoC5/LCD_Char_LCDPort.c **** * Function Name: LCD_Char_LCDPort_ReadDataReg
 127:Generated_Source\PSoC5/LCD_Char_LCDPort.c **** ****************************************************************************//**
 128:Generated_Source\PSoC5/LCD_Char_LCDPort.c **** *
 129:Generated_Source\PSoC5/LCD_Char_LCDPort.c **** * \brief Reads the associated physical port's data output register and masks 
 130:Generated_Source\PSoC5/LCD_Char_LCDPort.c **** *  the correct bits according to the width and bit position of the component 
 131:Generated_Source\PSoC5/LCD_Char_LCDPort.c **** *  instance. 
 132:Generated_Source\PSoC5/LCD_Char_LCDPort.c **** *
 133:Generated_Source\PSoC5/LCD_Char_LCDPort.c **** * The data output register controls the signal applied to the physical pin in 
ARM GAS  C:\Users\MECHAT~1\AppData\Local\Temp\cc6MRilA.s 			page 6


 134:Generated_Source\PSoC5/LCD_Char_LCDPort.c **** * conjunction with the drive mode parameter. This is not the same as the 
 135:Generated_Source\PSoC5/LCD_Char_LCDPort.c **** * preferred LCD_Char_LCDPort_Read() API because the 
 136:Generated_Source\PSoC5/LCD_Char_LCDPort.c **** * LCD_Char_LCDPort_ReadDataReg() reads the data register instead of the status 
 137:Generated_Source\PSoC5/LCD_Char_LCDPort.c **** * register. For output pins this is a useful function to determine the value 
 138:Generated_Source\PSoC5/LCD_Char_LCDPort.c **** * just written to the pin.
 139:Generated_Source\PSoC5/LCD_Char_LCDPort.c **** *
 140:Generated_Source\PSoC5/LCD_Char_LCDPort.c **** * \return 
 141:Generated_Source\PSoC5/LCD_Char_LCDPort.c **** *  The current value of the data register masked and shifted into a right 
 142:Generated_Source\PSoC5/LCD_Char_LCDPort.c **** *  justified number for the component instance.
 143:Generated_Source\PSoC5/LCD_Char_LCDPort.c **** *
 144:Generated_Source\PSoC5/LCD_Char_LCDPort.c **** * \funcusage
 145:Generated_Source\PSoC5/LCD_Char_LCDPort.c **** *  \snippet LCD_Char_LCDPort_SUT.c usage_LCD_Char_LCDPort_ReadDataReg 
 146:Generated_Source\PSoC5/LCD_Char_LCDPort.c **** *******************************************************************************/
 147:Generated_Source\PSoC5/LCD_Char_LCDPort.c **** uint8 LCD_Char_LCDPort_ReadDataReg(void)
 148:Generated_Source\PSoC5/LCD_Char_LCDPort.c **** {
 153              		.loc 1 148 0
 154              		.cfi_startproc
 155              		@ args = 0, pretend = 0, frame = 0
 156              		@ frame_needed = 0, uses_anonymous_args = 0
 157              		@ link register save eliminated.
 149:Generated_Source\PSoC5/LCD_Char_LCDPort.c ****     return (LCD_Char_LCDPort_DR & LCD_Char_LCDPort_MASK) >> LCD_Char_LCDPort_SHIFT;
 158              		.loc 1 149 0
 159 0000 014B     		ldr	r3, .L11
 160 0002 1878     		ldrb	r0, [r3]	@ zero_extendqisi2
 150:Generated_Source\PSoC5/LCD_Char_LCDPort.c **** }
 161              		.loc 1 150 0
 162 0004 4008     		lsrs	r0, r0, #1
 163 0006 7047     		bx	lr
 164              	.L12:
 165              		.align	2
 166              	.L11:
 167 0008 C0510040 		.word	1073762752
 168              		.cfi_endproc
 169              	.LFE3:
 170              		.size	LCD_Char_LCDPort_ReadDataReg, .-LCD_Char_LCDPort_ReadDataReg
 171              		.text
 172              	.Letext0:
 173              		.file 2 "Generated_Source\\PSoC5\\cytypes.h"