ARM GAS  C:\Users\MECHAT~1\AppData\Local\Temp\ccDM0HcX.s 			page 1


   1              		.syntax unified
   2              		.cpu cortex-m3
   3              		.fpu softvfp
   4              		.eabi_attribute 20, 1
   5              		.eabi_attribute 21, 1
   6              		.eabi_attribute 23, 3
   7              		.eabi_attribute 24, 1
   8              		.eabi_attribute 25, 1
   9              		.eabi_attribute 26, 1
  10              		.eabi_attribute 30, 1
  11              		.eabi_attribute 34, 1
  12              		.eabi_attribute 18, 4
  13              		.thumb
  14              		.syntax unified
  15              		.file	"main.c"
  16              		.text
  17              	.Ltext0:
  18              		.cfi_sections	.debug_frame
  19              		.global	__aeabi_i2f
  20              		.global	__aeabi_fmul
  21              		.global	__aeabi_fadd
  22              		.section	.text.dtisr_func,"ax",%progbits
  23              		.align	2
  24              		.global	dtisr_func
  25              		.thumb
  26              		.thumb_func
  27              		.type	dtisr_func, %function
  28              	dtisr_func:
  29              	.LFB65:
  30              		.file 1 "main.c"
   1:main.c        **** /* ========================================
   2:main.c        ****  *
   3:main.c        ****  * Copyright YOUR COMPANY, THE YEAR
   4:main.c        ****  * All Rights Reserved
   5:main.c        ****  * UNPUBLISHED, LICENSED SOFTWARE.
   6:main.c        ****  *
   7:main.c        ****  * CONFIDENTIAL AND PROPRIETARY INFORMATION
   8:main.c        ****  * WHICH IS THE PROPERTY OF your company.
   9:main.c        ****  *
  10:main.c        ****  * ========================================
  11:main.c        **** */
  12:main.c        **** #include "project.h"
  13:main.c        **** #define Kp      60
  14:main.c        **** #define Ki      500 
  15:main.c        **** #define Kd      0.1
  16:main.c        **** 
  17:main.c        **** #define target  32780  //32767が基準
  18:main.c        **** #define isr_clock 10
  19:main.c        **** 
  20:main.c        **** 
  21:main.c        **** volatile short temp_Count = 0xFFFF,Count = 0xFFFF;
  22:main.c        **** float ans = 0;
  23:main.c        **** float dt, preTime;
  24:main.c        **** float vol;
  25:main.c        **** float P, I, D, preP;
  26:main.c        **** 
  27:main.c        **** volatile short isrcnt;
ARM GAS  C:\Users\MECHAT~1\AppData\Local\Temp\ccDM0HcX.s 			page 2


  28:main.c        **** 
  29:main.c        **** int data_conv(char data[],int baias,short num){
  30:main.c        ****     
  31:main.c        ****     data[baias] = num >> 8;
  32:main.c        ****     data[baias+1] = num >> 0;
  33:main.c        ****     
  34:main.c        ****     return  baias+2;
  35:main.c        **** }
  36:main.c        **** 
  37:main.c        **** inline void PID() {
  38:main.c        ****     
  39:main.c        ****     dt = 1 / isr_clock;
  40:main.c        ****     P  = target - temp_Count;
  41:main.c        ****     I += P * dt;
  42:main.c        ****     //D  = (P - preP) / dt;
  43:main.c        ****     preP = P;
  44:main.c        **** 
  45:main.c        ****     //ans += Kp * P + Ki * I + Kd * D;
  46:main.c        ****     ans += Kp * P + Ki * I;
  47:main.c        **** }
  48:main.c        **** 
  49:main.c        **** CY_ISR(dtisr_func){
  31              		.loc 1 49 0
  32              		.cfi_startproc
  33              		@ args = 0, pretend = 0, frame = 0
  34              		@ frame_needed = 0, uses_anonymous_args = 0
  35 0000 70B5     		push	{r4, r5, r6, lr}
  36              		.cfi_def_cfa_offset 16
  37              		.cfi_offset 4, -16
  38              		.cfi_offset 5, -12
  39              		.cfi_offset 6, -8
  40              		.cfi_offset 14, -4
  50:main.c        ****     
  51:main.c        ****     //Count = 0;
  52:main.c        ****     isrcnt++; 
  41              		.loc 1 52 0
  42 0002 1A4A     		ldr	r2, .L3
  43 0004 1388     		ldrh	r3, [r2]
  44 0006 0133     		adds	r3, r3, #1
  45 0008 1BB2     		sxth	r3, r3
  46 000a 1380     		strh	r3, [r2]	@ movhi
  53:main.c        ****     QuadDec_SetCounter(0);
  47              		.loc 1 53 0
  48 000c 0020     		movs	r0, #0
  49 000e FFF7FEFF 		bl	QuadDec_SetCounter
  50              	.LVL0:
  51              	.LBB4:
  52              	.LBB5:
  39:main.c        ****     P  = target - temp_Count;
  53              		.loc 1 39 0
  54 0012 0025     		movs	r5, #0
  55 0014 164B     		ldr	r3, .L3+4
  56 0016 1D60     		str	r5, [r3]	@ float
  40:main.c        ****     I += P * dt;
  57              		.loc 1 40 0
  58 0018 164B     		ldr	r3, .L3+8
  59 001a 1888     		ldrh	r0, [r3]
ARM GAS  C:\Users\MECHAT~1\AppData\Local\Temp\ccDM0HcX.s 			page 3


  60 001c 00B2     		sxth	r0, r0
  61 001e C0F50040 		rsb	r0, r0, #32768
  62 0022 0C30     		adds	r0, r0, #12
  63 0024 FFF7FEFF 		bl	__aeabi_i2f
  64              	.LVL1:
  65 0028 0446     		mov	r4, r0
  66 002a 134B     		ldr	r3, .L3+12
  67 002c 1860     		str	r0, [r3]	@ float
  41:main.c        ****     //D  = (P - preP) / dt;
  68              		.loc 1 41 0
  69 002e 2946     		mov	r1, r5
  70 0030 FFF7FEFF 		bl	__aeabi_fmul
  71              	.LVL2:
  72 0034 114E     		ldr	r6, .L3+16
  73 0036 3168     		ldr	r1, [r6]	@ float
  74 0038 FFF7FEFF 		bl	__aeabi_fadd
  75              	.LVL3:
  76 003c 0546     		mov	r5, r0
  77 003e 3060     		str	r0, [r6]	@ float
  43:main.c        **** 
  78              		.loc 1 43 0
  79 0040 0F4B     		ldr	r3, .L3+20
  80 0042 1C60     		str	r4, [r3]	@ float
  46:main.c        **** }
  81              		.loc 1 46 0
  82 0044 0F49     		ldr	r1, .L3+24
  83 0046 2046     		mov	r0, r4
  84 0048 FFF7FEFF 		bl	__aeabi_fmul
  85              	.LVL4:
  86 004c 0446     		mov	r4, r0
  87 004e 0E49     		ldr	r1, .L3+28
  88 0050 2846     		mov	r0, r5
  89 0052 FFF7FEFF 		bl	__aeabi_fmul
  90              	.LVL5:
  91 0056 0146     		mov	r1, r0
  92 0058 2046     		mov	r0, r4
  93 005a FFF7FEFF 		bl	__aeabi_fadd
  94              	.LVL6:
  95 005e 0B4C     		ldr	r4, .L3+32
  96 0060 0146     		mov	r1, r0
  97 0062 2068     		ldr	r0, [r4]	@ float
  98 0064 FFF7FEFF 		bl	__aeabi_fadd
  99              	.LVL7:
 100 0068 2060     		str	r0, [r4]	@ float
 101 006a 70BD     		pop	{r4, r5, r6, pc}
 102              	.L4:
 103              		.align	2
 104              	.L3:
 105 006c 00000000 		.word	isrcnt
 106 0070 00000000 		.word	dt
 107 0074 00000000 		.word	.LANCHOR0
 108 0078 00000000 		.word	P
 109 007c 00000000 		.word	I
 110 0080 00000000 		.word	preP
 111 0084 00007042 		.word	1114636288
 112 0088 0000FA43 		.word	1140457472
 113 008c 00000000 		.word	.LANCHOR1
ARM GAS  C:\Users\MECHAT~1\AppData\Local\Temp\ccDM0HcX.s 			page 4


 114              	.LBE5:
 115              	.LBE4:
 116              		.cfi_endproc
 117              	.LFE65:
 118              		.size	dtisr_func, .-dtisr_func
 119              		.section	.text.data_conv,"ax",%progbits
 120              		.align	2
 121              		.global	data_conv
 122              		.thumb
 123              		.thumb_func
 124              		.type	data_conv, %function
 125              	data_conv:
 126              	.LFB63:
  29:main.c        ****     
 127              		.loc 1 29 0
 128              		.cfi_startproc
 129              		@ args = 0, pretend = 0, frame = 0
 130              		@ frame_needed = 0, uses_anonymous_args = 0
 131              		@ link register save eliminated.
 132              	.LVL8:
  31:main.c        ****     data[baias+1] = num >> 0;
 133              		.loc 1 31 0
 134 0000 1312     		asrs	r3, r2, #8
 135 0002 4354     		strb	r3, [r0, r1]
  32:main.c        ****     
 136              		.loc 1 32 0
 137 0004 4B1C     		adds	r3, r1, #1
 138 0006 C254     		strb	r2, [r0, r3]
  35:main.c        **** 
 139              		.loc 1 35 0
 140 0008 881C     		adds	r0, r1, #2
 141              	.LVL9:
 142 000a 7047     		bx	lr
 143              		.cfi_endproc
 144              	.LFE63:
 145              		.size	data_conv, .-data_conv
 146              		.global	__aeabi_f2iz
 147              		.global	__aeabi_f2uiz
 148              		.section	.text.main,"ax",%progbits
 149              		.align	2
 150              		.global	main
 151              		.thumb
 152              		.thumb_func
 153              		.type	main, %function
 154              	main:
 155              	.LFB66:
  54:main.c        ****     
  55:main.c        ****     PID();
  56:main.c        ****     
  57:main.c        **** }
  58:main.c        **** int main(void)
  59:main.c        **** {
 156              		.loc 1 59 0
 157              		.cfi_startproc
 158              		@ args = 0, pretend = 0, frame = 72
 159              		@ frame_needed = 0, uses_anonymous_args = 0
 160 0000 70B5     		push	{r4, r5, r6, lr}
ARM GAS  C:\Users\MECHAT~1\AppData\Local\Temp\ccDM0HcX.s 			page 5


 161              		.cfi_def_cfa_offset 16
 162              		.cfi_offset 4, -16
 163              		.cfi_offset 5, -12
 164              		.cfi_offset 6, -8
 165              		.cfi_offset 14, -4
 166 0002 92B0     		sub	sp, sp, #72
 167              		.cfi_def_cfa_offset 88
  60:main.c        ****     CyGlobalIntEnable; /* Enable global interrupts. */
 168              		.loc 1 60 0
 169              		.syntax unified
 170              	@ 60 "main.c" 1
 171 0004 62B6     		CPSIE   i
 172              	@ 0 "" 2
  61:main.c        ****     PWM_Start();
 173              		.loc 1 61 0
 174              		.thumb
 175              		.syntax unified
 176 0006 FFF7FEFF 		bl	PWM_Start
 177              	.LVL10:
  62:main.c        ****     
  63:main.c        ****     //PWM_WriteCompare(100);
  64:main.c        ****     USBUART_Start(0,USBUART_5V_OPERATION);
 178              		.loc 1 64 0
 179 000a 0121     		movs	r1, #1
 180 000c 0020     		movs	r0, #0
 181 000e FFF7FEFF 		bl	USBUART_Start
 182              	.LVL11:
  65:main.c        ****     //while(!USBUART_bGetConfiguration()){}
  66:main.c        ****     LCD_Char_Start();
 183              		.loc 1 66 0
 184 0012 FFF7FEFF 		bl	LCD_Char_Start
 185              	.LVL12:
  67:main.c        ****     USBUART_CDC_Init();
 186              		.loc 1 67 0
 187 0016 FFF7FEFF 		bl	USBUART_CDC_Init
 188              	.LVL13:
  68:main.c        ****     volatile int dbg_ans = 0;
 189              		.loc 1 68 0
 190 001a 0024     		movs	r4, #0
 191 001c 1194     		str	r4, [sp, #68]
 192              	.LVL14:
  69:main.c        ****     
  70:main.c        **** 
  71:main.c        ****     int uart_count = 0;
  72:main.c        ****     char buff[64] = "";
 193              		.loc 1 72 0
 194 001e 0194     		str	r4, [sp, #4]
 195 0020 3C22     		movs	r2, #60
 196 0022 2146     		mov	r1, r4
 197 0024 02A8     		add	r0, sp, #8
 198 0026 FFF7FEFF 		bl	memset
 199              	.LVL15:
  73:main.c        **** 
  74:main.c        ****     isrcnt=0;
 200              		.loc 1 74 0
 201 002a 1B4B     		ldr	r3, .L9
 202 002c 1C80     		strh	r4, [r3]	@ movhi
ARM GAS  C:\Users\MECHAT~1\AppData\Local\Temp\ccDM0HcX.s 			page 6


  75:main.c        ****     QuadDec_Start();
 203              		.loc 1 75 0
 204 002e FFF7FEFF 		bl	QuadDec_Start
 205              	.LVL16:
  76:main.c        ****     
  77:main.c        ****     dt_isr_StartEx(dtisr_func);
 206              		.loc 1 77 0
 207 0032 1A48     		ldr	r0, .L9+4
 208 0034 FFF7FEFF 		bl	dt_isr_StartEx
 209              	.LVL17:
 210              	.L7:
  78:main.c        ****     /* Place your initialization/startup code here (e.g. MyInst_Start()) */
  79:main.c        ****    
  80:main.c        ****     
  81:main.c        ****     for(;;)
  82:main.c        ****     {
  83:main.c        ****         //dbg_ans = (int)(ans*1000000);
  84:main.c        ****         dbg_ans = ans;
 211              		.loc 1 84 0 discriminator 1
 212 0038 194B     		ldr	r3, .L9+8
 213 003a 1E68     		ldr	r6, [r3]	@ float
 214 003c 3046     		mov	r0, r6
 215 003e FFF7FEFF 		bl	__aeabi_f2iz
 216              	.LVL18:
 217 0042 1190     		str	r0, [sp, #68]
  85:main.c        ****        // LCD_Char_PrintNumber(Clock_2_GetSourceRegister());
  86:main.c        ****         temp_Count = 0xFFFF / 2;
 218              		.loc 1 86 0 discriminator 1
 219 0044 174C     		ldr	r4, .L9+12
 220 0046 47F6FF75 		movw	r5, #32767
 221 004a 2580     		strh	r5, [r4]	@ movhi
  87:main.c        ****         // 現在のカウンタ値取得
  88:main.c        ****         
  89:main.c        ****         PWM_WriteCompare(ans);
 222              		.loc 1 89 0 discriminator 1
 223 004c 3046     		mov	r0, r6
 224 004e FFF7FEFF 		bl	__aeabi_f2uiz
 225              	.LVL19:
 226 0052 80B2     		uxth	r0, r0
 227 0054 FFF7FEFF 		bl	PWM_WriteCompare
 228              	.LVL20:
  90:main.c        ****         
  91:main.c        ****         temp_Count -= QuadDec_GetCounter();
 229              		.loc 1 91 0 discriminator 1
 230 0058 FFF7FEFF 		bl	QuadDec_GetCounter
 231              	.LVL21:
 232 005c 2388     		ldrh	r3, [r4]
 233 005e 181A     		subs	r0, r3, r0
 234 0060 00B2     		sxth	r0, r0
 235 0062 2080     		strh	r0, [r4]	@ movhi
  92:main.c        ****         LCD_Char_Position(0,0); 
 236              		.loc 1 92 0 discriminator 1
 237 0064 0021     		movs	r1, #0
 238 0066 0846     		mov	r0, r1
 239 0068 FFF7FEFF 		bl	LCD_Char_Position
 240              	.LVL22:
  93:main.c        ****         LCD_Char_PrintNumber(temp_Count);
ARM GAS  C:\Users\MECHAT~1\AppData\Local\Temp\ccDM0HcX.s 			page 7


 241              		.loc 1 93 0 discriminator 1
 242 006c 2088     		ldrh	r0, [r4]
 243 006e 80B2     		uxth	r0, r0
 244 0070 FFF7FEFF 		bl	LCD_Char_PrintU32Number
 245              	.LVL23:
  94:main.c        ****         
  95:main.c        ****         Count = (0xFFFF/2) - temp_Count;
 246              		.loc 1 95 0 discriminator 1
 247 0074 2388     		ldrh	r3, [r4]
 248 0076 ED1A     		subs	r5, r5, r3
 249 0078 2DB2     		sxth	r5, r5
 250 007a 6580     		strh	r5, [r4, #2]	@ movhi
  96:main.c        ****         
  97:main.c        ****         buff[0] = 's';
 251              		.loc 1 97 0 discriminator 1
 252 007c 12A8     		add	r0, sp, #72
 253 007e 7323     		movs	r3, #115
 254 0080 00F8443D 		strb	r3, [r0, #-68]!
  98:main.c        ****         data_conv(buff,1,temp_Count);
 255              		.loc 1 98 0 discriminator 1
 256 0084 2288     		ldrh	r2, [r4]
 257 0086 12B2     		sxth	r2, r2
 258 0088 0121     		movs	r1, #1
 259 008a FFF7FEFF 		bl	data_conv
 260              	.LVL24:
  99:main.c        ****         buff[8] = 'e';
 261              		.loc 1 99 0 discriminator 1
 262 008e 6523     		movs	r3, #101
 263 0090 8DF80C30 		strb	r3, [sp, #12]
 264 0094 D0E7     		b	.L7
 265              	.L10:
 266 0096 00BF     		.align	2
 267              	.L9:
 268 0098 00000000 		.word	isrcnt
 269 009c 00000000 		.word	dtisr_func
 270 00a0 00000000 		.word	.LANCHOR1
 271 00a4 00000000 		.word	.LANCHOR0
 272              		.cfi_endproc
 273              	.LFE66:
 274              		.size	main, .-main
 275              		.comm	isrcnt,2,2
 276              		.comm	preP,4,4
 277              		.comm	D,4,4
 278              		.comm	I,4,4
 279              		.comm	P,4,4
 280              		.comm	vol,4,4
 281              		.comm	preTime,4,4
 282              		.comm	dt,4,4
 283              		.global	ans
 284              		.global	Count
 285              		.global	temp_Count
 286              		.data
 287              		.align	1
 288              		.set	.LANCHOR0,. + 0
 289              		.type	temp_Count, %object
 290              		.size	temp_Count, 2
 291              	temp_Count:
ARM GAS  C:\Users\MECHAT~1\AppData\Local\Temp\ccDM0HcX.s 			page 8


 292 0000 FFFF     		.short	-1
 293              		.type	Count, %object
 294              		.size	Count, 2
 295              	Count:
 296 0002 FFFF     		.short	-1
 297              		.bss
 298              		.align	2
 299              		.set	.LANCHOR1,. + 0
 300              		.type	ans, %object
 301              		.size	ans, 4
 302              	ans:
 303 0000 00000000 		.space	4
 304              		.text
 305              	.Letext0:
 306              		.file 2 "c:\\program files (x86)\\cypress\\psoc creator\\4.1\\psoc creator\\import\\gnu\\arm\\5.4.
 307              		.file 3 "c:\\program files (x86)\\cypress\\psoc creator\\4.1\\psoc creator\\import\\gnu\\arm\\5.4.
 308              		.file 4 "Generated_Source\\PSoC5/cytypes.h"
 309              		.file 5 "Generated_Source\\PSoC5/core_cm3.h"
 310              		.file 6 "Generated_Source\\PSoC5/QuadDec.h"
 311              		.file 7 "Generated_Source\\PSoC5/PWM.h"
 312              		.file 8 "Generated_Source\\PSoC5/USBUART.h"
 313              		.file 9 "Generated_Source\\PSoC5/LCD_Char.h"
 314              		.file 10 "Generated_Source\\PSoC5/USBUART_cdc.h"
 315              		.file 11 "Generated_Source\\PSoC5/dt_isr.h"